; Function Attrs: nounwind uwtable
define nonnull ptr @l_Lean_RBMap_contains___rarg___boxed(ptr noundef %0, ptr noundef %1, ptr noundef %2) #1 {
  %4 = tail call ptr @l_Lean_RBNode_find___rarg(ptr noundef %0, ptr nonnull poison, ptr noundef %1, ptr noundef %2)
  %5 = ptrtoint ptr %4 to i64
  %6 = and i64 %5, 1
  %.not.i7.i = icmp eq i64 %6, 0
  br i1 %.not.i7.i, label %lean_obj_tag.exit.thread.i, label %lean_obj_tag.exit.i

lean_obj_tag.exit.i:                              ; preds = %3
  %7 = and i64 %5, 8589934590
  %.not = icmp eq i64 %7, 0
  %8 = select i1 %.not, i64 1, i64 3
  br label %l_Lean_RBMap_contains___rarg.exit

lean_obj_tag.exit.thread.i:                       ; preds = %3
  %9 = getelementptr i8, ptr %4, i64 4
  %.val.i.i = load i32, ptr %9, align 4
  %10 = icmp ult i32 %.val.i.i, 16777216
  br i1 %10, label %l_Lean_RBMap_contains___rarg.exit, label %.thread.i

.thread.i:                                        ; preds = %lean_obj_tag.exit.thread.i
  %11 = load i32, ptr %4, align 4, !tbaa !4
  %12 = icmp sgt i32 %11, 1
  br i1 %12, label %13, label %15, !prof !9

13:                                               ; preds = %.thread.i
  %14 = add nsw i32 %11, -1
  store i32 %14, ptr %4, align 4, !tbaa !4
  br label %l_Lean_RBMap_contains___rarg.exit

15:                                               ; preds = %.thread.i
  %.not.i.i = icmp eq i32 %11, 0
  br i1 %.not.i.i, label %l_Lean_RBMap_contains___rarg.exit, label %16

16:                                               ; preds = %15
  tail call void @lean_dec_ref_cold(ptr noundef nonnull %4) #9
  br label %l_Lean_RBMap_contains___rarg.exit

l_Lean_RBMap_contains___rarg.exit:                ; preds = %lean_obj_tag.exit.i, %lean_obj_tag.exit.thread.i, %13, %15, %16
  %.0.i = phi i64 [ 1, %lean_obj_tag.exit.thread.i ], [ 3, %16 ], [ 3, %15 ], [ 3, %13 ], [ %8, %lean_obj_tag.exit.i ]
  %17 = inttoptr i64 %.0.i to ptr
  ret ptr %17
}